; ModuleID = '54/1332.c'
source_filename = "54/1332.c"
target datalayout = "e-m:e-p270:32:32-p271:32:32-p272:64:64-i64:64-f80:128-n8:16:32:64-S128"
target triple = "x86_64-pc-linux-gnu"

@.str = private unnamed_addr constant [6 x i8] c"%d %d\00", align 1
@.str.1 = private unnamed_addr constant [4 x i8] c"%d\0A\00", align 1

; Function Attrs: noinline nounwind uwtable
define dso_local i32 @num(i32 %0, i32 %1) #0 {
  %3 = alloca i32, align 4
  %4 = alloca i32, align 4
  %5 = alloca i32, align 4
  %6 = alloca i32, align 4
  %7 = alloca i32, align 4
  %8 = alloca i32, align 4
  store i32 %0, i32* %3, align 4
  store i32 %1, i32* %4, align 4
  store i32 0, i32* %7, align 4
  store i32 1, i32* %6, align 4
  br label %9

9:                                                ; preds = %41, %2
  %10 = load i32, i32* %7, align 4
  %11 = icmp eq i32 %10, 0
  br i1 %11, label %12, label %44

12:                                               ; preds = %9
  store i32 1, i32* %7, align 4
  %13 = load i32, i32* %6, align 4
  store i32 %13, i32* %8, align 4
  %14 = load i32, i32* %3, align 4
  store i32 %14, i32* %5, align 4
  br label %15

15:                                               ; preds = %37, %12
  %16 = load i32, i32* %5, align 4
  %17 = icmp sge i32 %16, 1
  br i1 %17, label %18, label %40

18:                                               ; preds = %15
  %19 = load i32, i32* %8, align 4
  %20 = load i32, i32* %3, align 4
  %21 = mul nsw i32 %19, %20
  %22 = load i32, i32* %3, align 4
  %23 = sub nsw i32 %22, 1
  %24 = srem i32 %21, %23
  %25 = icmp ne i32 %24, 0
  br i1 %25, label %26, label %27

26:                                               ; preds = %18
  store i32 0, i32* %7, align 4
  br label %40

27:                                               ; preds = %18
  %28 = load i32, i32* %4, align 4
  %29 = load i32, i32* %8, align 4
  %30 = load i32, i32* %3, align 4
  %31 = mul nsw i32 %29, %30
  %32 = load i32, i32* %3, align 4
  %33 = sub nsw i32 %32, 1
  %34 = sdiv i32 %31, %33
  %35 = add nsw i32 %28, %34
  store i32 %35, i32* %8, align 4
  br label %36

36:                                               ; preds = %27
  br label %37

37:                                               ; preds = %36
  %38 = load i32, i32* %5, align 4
  %39 = add nsw i32 %38, -1
  store i32 %39, i32* %5, align 4
  br label %15

40:                                               ; preds = %26, %15
  br label %41

41:                                               ; preds = %40
  %42 = load i32, i32* %6, align 4
  %43 = add nsw i32 %42, 1
  store i32 %43, i32* %6, align 4
  br label %9

44:                                               ; preds = %9
  %45 = load i32, i32* %8, align 4
  ret i32 %45
}

; Function Attrs: noinline nounwind uwtable
define dso_local void @main() #0 {
  %1 = alloca i32, align 4
  %2 = alloca i32, align 4
  %3 = alloca i32, align 4
  %4 = call i32 (i8*, ...) @__isoc99_scanf(i8* getelementptr inbounds ([6 x i8], [6 x i8]* @.str, i64 0, i64 0), i32* %2, i32* %3)
  %5 = load i32, i32* %2, align 4
  %6 = load i32, i32* %3, align 4
  %7 = call i32 @num(i32 %5, i32 %6)
  store i32 %7, i32* %1, align 4
  %8 = load i32, i32* %1, align 4
  %9 = call i32 (i8*, ...) @printf(i8* getelementptr inbounds ([4 x i8], [4 x i8]* @.str.1, i64 0, i64 0), i32 %8)
  ret void
}

declare dso_local i32 @__isoc99_scanf(i8*, ...) #1

declare dso_local i32 @printf(i8*, ...) #1


!llvm.module.flags = !{!0}
!llvm.ident = !{!1}

!0 = !{i32 1, !"wchar_size", i32 4}
!1 = !{!"clang version 10.0.0-4ubuntu1 "}
